target datalayout = "e-m:e-p270:32:32-p271:32:32-p272:64:64-i64:64-i128:128-f80:128-n8:16:32:64-S128"
target triple = "x86_64-pc-linux-gnu"

%struct.Vec_Wrd_t_ = type { i32, i32, ptr }

; Function Attrs: inlinehint nounwind uwtable
define internal void @Vec_WrdGrow(ptr noundef %0, i32 noundef %1) #2 {
  %3 = alloca ptr, align 8
  %4 = alloca i32, align 4
  store ptr %0, ptr %3, align 8, !tbaa !85
  store i32 %1, ptr %4, align 4, !tbaa !10
  %5 = load ptr, ptr %3, align 8, !tbaa !85
  %6 = getelementptr inbounds nuw %struct.Vec_Wrd_t_, ptr %5, i32 0, i32 0
  %7 = load i32, ptr %6, align 8, !tbaa !88
  %8 = load i32, ptr %4, align 4, !tbaa !10
  %9 = icmp sge i32 %7, %8
  br i1 %9, label %10, label %11

10:                                               ; preds = %2
  br label %36

11:                                               ; preds = %2
  %12 = load ptr, ptr %3, align 8, !tbaa !85
  %13 = getelementptr inbounds nuw %struct.Vec_Wrd_t_, ptr %12, i32 0, i32 2
  %14 = load ptr, ptr %13, align 8, !tbaa !89
  %15 = icmp ne ptr %14, null
  br i1 %15, label %16, label %24

16:                                               ; preds = %11
  %17 = load ptr, ptr %3, align 8, !tbaa !85
  %18 = getelementptr inbounds nuw %struct.Vec_Wrd_t_, ptr %17, i32 0, i32 2
  %19 = load ptr, ptr %18, align 8, !tbaa !89
  %20 = load i32, ptr %4, align 4, !tbaa !10
  %21 = sext i32 %20 to i64
  %22 = mul i64 8, %21
  %23 = call ptr @realloc(ptr noundef %19, i64 noundef %22) #17
  br label %29

24:                                               ; preds = %11
  %25 = load i32, ptr %4, align 4, !tbaa !10
  %26 = sext i32 %25 to i64
  %27 = mul i64 8, %26
  %28 = call noalias ptr @malloc(i64 noundef %27) #15
  br label %29

29:                                               ; preds = %24, %16
  %30 = phi ptr [ %23, %16 ], [ %28, %24 ]
  %31 = load ptr, ptr %3, align 8, !tbaa !85
  %32 = getelementptr inbounds nuw %struct.Vec_Wrd_t_, ptr %31, i32 0, i32 2
  store ptr %30, ptr %32, align 8, !tbaa !89
  %33 = load i32, ptr %4, align 4, !tbaa !10
  %34 = load ptr, ptr %3, align 8, !tbaa !85
  %35 = getelementptr inbounds nuw %struct.Vec_Wrd_t_, ptr %34, i32 0, i32 0
  store i32 %33, ptr %35, align 8, !tbaa !88
  br label %36

36:                                               ; preds = %29, %10
  ret void
}

; Function Attrs: inlinehint nounwind uwtable
define internal void @Abc_TtSharp(ptr noundef %0, ptr noundef %1, ptr noundef %2, i32 noundef %3) #2 {
  %5 = alloca ptr, align 8
  %6 = alloca ptr, align 8
  %7 = alloca ptr, align 8
  %8 = alloca i32, align 4
  %9 = alloca i32, align 4
  store ptr %0, ptr %5, align 8, !tbaa !76
  store ptr %1, ptr %6, align 8, !tbaa !76
  store ptr %2, ptr %7, align 8, !tbaa !76
  store i32 %3, ptr %8, align 4, !tbaa !10
  call void @llvm.lifetime.start.p0(i64 4, ptr %9) #14
  store i32 0, ptr %9, align 4, !tbaa !10
  br label %10

10:                                               ; preds = %31, %4
  %11 = load i32, ptr %9, align 4, !tbaa !10
  %12 = load i32, ptr %8, align 4, !tbaa !10
  %13 = icmp slt i32 %11, %12
  br i1 %13, label %14, label %34

14:                                               ; preds = %10
  %15 = load ptr, ptr %6, align 8, !tbaa !76
  %16 = load i32, ptr %9, align 4, !tbaa !10
  %17 = sext i32 %16 to i64
  %18 = getelementptr inbounds i64, ptr %15, i64 %17
  %19 = load i64, ptr %18, align 8, !tbaa !65
  %20 = load ptr, ptr %7, align 8, !tbaa !76
  %21 = load i32, ptr %9, align 4, !tbaa !10
  %22 = sext i32 %21 to i64
  %23 = getelementptr inbounds i64, ptr %20, i64 %22
  %24 = load i64, ptr %23, align 8, !tbaa !65
  %25 = xor i64 %24, -1
  %26 = and i64 %19, %25
  %27 = load ptr, ptr %5, align 8, !tbaa !76
  %28 = load i32, ptr %9, align 4, !tbaa !10
  %29 = sext i32 %28 to i64
  %30 = getelementptr inbounds i64, ptr %27, i64 %29
  store i64 %26, ptr %30, align 8, !tbaa !65
  br label %31

31:                                               ; preds = %14
  %32 = load i32, ptr %9, align 4, !tbaa !10
  %33 = add nsw i32 %32, 1
  store i32 %33, ptr %9, align 4, !tbaa !10
  br label %10, !llvm.loop !248

34:                                               ; preds = %10
  call void @llvm.lifetime.end.p0(i64 4, ptr %9) #14
  ret void
}

; Function Attrs: inlinehint nounwind uwtable
define internal void @Abc_TtAnd(ptr noundef %0, ptr noundef %1, ptr noundef %2, i32 noundef %3, i32 noundef %4) #2 {
  %6 = alloca ptr, align 8
  %7 = alloca ptr, align 8
  %8 = alloca ptr, align 8
  %9 = alloca i32, align 4
  %10 = alloca i32, align 4
  %11 = alloca i32, align 4
  store ptr %0, ptr %6, align 8, !tbaa !76
  store ptr %1, ptr %7, align 8, !tbaa !76
  store ptr %2, ptr %8, align 8, !tbaa !76
  store i32 %3, ptr %9, align 4, !tbaa !10
  store i32 %4, ptr %10, align 4, !tbaa !10
  call void @llvm.lifetime.start.p0(i64 4, ptr %11) #14
  %12 = load i32, ptr %10, align 4, !tbaa !10
  %13 = icmp ne i32 %12, 0
  br i1 %13, label %14, label %40

14:                                               ; preds = %5
  store i32 0, ptr %11, align 4, !tbaa !10
  br label %15

15:                                               ; preds = %36, %14
  %16 = load i32, ptr %11, align 4, !tbaa !10
  %17 = load i32, ptr %9, align 4, !tbaa !10
  %18 = icmp slt i32 %16, %17
  br i1 %18, label %19, label %39

19:                                               ; preds = %15
  %20 = load ptr, ptr %7, align 8, !tbaa !76
  %21 = load i32, ptr %11, align 4, !tbaa !10
  %22 = sext i32 %21 to i64
  %23 = getelementptr inbounds i64, ptr %20, i64 %22
  %24 = load i64, ptr %23, align 8, !tbaa !65
  %25 = load ptr, ptr %8, align 8, !tbaa !76
  %26 = load i32, ptr %11, align 4, !tbaa !10
  %27 = sext i32 %26 to i64
  %28 = getelementptr inbounds i64, ptr %25, i64 %27
  %29 = load i64, ptr %28, align 8, !tbaa !65
  %30 = and i64 %24, %29
  %31 = xor i64 %30, -1
  %32 = load ptr, ptr %6, align 8, !tbaa !76
  %33 = load i32, ptr %11, align 4, !tbaa !10
  %34 = sext i32 %33 to i64
  %35 = getelementptr inbounds i64, ptr %32, i64 %34
  store i64 %31, ptr %35, align 8, !tbaa !65
  br label %36

36:                                               ; preds = %19
  %37 = load i32, ptr %11, align 4, !tbaa !10
  %38 = add nsw i32 %37, 1
  store i32 %38, ptr %11, align 4, !tbaa !10
  br label %15, !llvm.loop !246

39:                                               ; preds = %15
  br label %65

40:                                               ; preds = %5
  store i32 0, ptr %11, align 4, !tbaa !10
  br label %41

41:                                               ; preds = %61, %40
  %42 = load i32, ptr %11, align 4, !tbaa !10
  %43 = load i32, ptr %9, align 4, !tbaa !10
  %44 = icmp slt i32 %42, %43
  br i1 %44, label %45, label %64

45:                                               ; preds = %41
  %46 = load ptr, ptr %7, align 8, !tbaa !76
  %47 = load i32, ptr %11, align 4, !tbaa !10
  %48 = sext i32 %47 to i64
  %49 = getelementptr inbounds i64, ptr %46, i64 %48
  %50 = load i64, ptr %49, align 8, !tbaa !65
  %51 = load ptr, ptr %8, align 8, !tbaa !76
  %52 = load i32, ptr %11, align 4, !tbaa !10
  %53 = sext i32 %52 to i64
  %54 = getelementptr inbounds i64, ptr %51, i64 %53
  %55 = load i64, ptr %54, align 8, !tbaa !65
  %56 = and i64 %50, %55
  %57 = load ptr, ptr %6, align 8, !tbaa !76
  %58 = load i32, ptr %11, align 4, !tbaa !10
  %59 = sext i32 %58 to i64
  %60 = getelementptr inbounds i64, ptr %57, i64 %59
  store i64 %56, ptr %60, align 8, !tbaa !65
  br label %61

61:                                               ; preds = %45
  %62 = load i32, ptr %11, align 4, !tbaa !10
  %63 = add nsw i32 %62, 1
  store i32 %63, ptr %11, align 4, !tbaa !10
  br label %41, !llvm.loop !247

64:                                               ; preds = %41
  br label %65

65:                                               ; preds = %64, %39
  call void @llvm.lifetime.end.p0(i64 4, ptr %11) #14
  ret void
}

; Function Attrs: inlinehint nounwind uwtable
define internal ptr @Vec_WrdEntryP(ptr noundef %0, i32 noundef %1) #2 {
  %3 = alloca ptr, align 8
  %4 = alloca i32, align 4
  store ptr %0, ptr %3, align 8, !tbaa !85
  store i32 %1, ptr %4, align 4, !tbaa !10
  %5 = load ptr, ptr %3, align 8, !tbaa !85
  %6 = getelementptr inbounds nuw %struct.Vec_Wrd_t_, ptr %5, i32 0, i32 2
  %7 = load ptr, ptr %6, align 8, !tbaa !89
  %8 = load i32, ptr %4, align 4, !tbaa !10
  %9 = sext i32 %8 to i64
  %10 = getelementptr inbounds i64, ptr %7, i64 %9
  ret ptr %10
}

; Function Attrs: inlinehint nounwind uwtable
define internal void @Vec_WrdPush(ptr noundef %0, i64 noundef %1) #2 {
  %3 = alloca ptr, align 8
  %4 = alloca i64, align 8
  store ptr %0, ptr %3, align 8, !tbaa !85
  store i64 %1, ptr %4, align 8, !tbaa !65
  %5 = load ptr, ptr %3, align 8, !tbaa !85
  %6 = getelementptr inbounds nuw %struct.Vec_Wrd_t_, ptr %5, i32 0, i32 1
  %7 = load i32, ptr %6, align 4, !tbaa !86
  %8 = load ptr, ptr %3, align 8, !tbaa !85
  %9 = getelementptr inbounds nuw %struct.Vec_Wrd_t_, ptr %8, i32 0, i32 0
  %10 = load i32, ptr %9, align 8, !tbaa !88
  %11 = icmp eq i32 %7, %10
  br i1 %11, label %12, label %26

12:                                               ; preds = %2
  %13 = load ptr, ptr %3, align 8, !tbaa !85
  %14 = getelementptr inbounds nuw %struct.Vec_Wrd_t_, ptr %13, i32 0, i32 0
  %15 = load i32, ptr %14, align 8, !tbaa !88
  %16 = icmp slt i32 %15, 16
  br i1 %16, label %17, label %19

17:                                               ; preds = %12
  %18 = load ptr, ptr %3, align 8, !tbaa !85
  call void @Vec_WrdGrow(ptr noundef %18, i32 noundef 16)
  br label %25

19:                                               ; preds = %12
  %20 = load ptr, ptr %3, align 8, !tbaa !85
  %21 = load ptr, ptr %3, align 8, !tbaa !85
  %22 = getelementptr inbounds nuw %struct.Vec_Wrd_t_, ptr %21, i32 0, i32 0
  %23 = load i32, ptr %22, align 8, !tbaa !88
  %24 = mul nsw i32 2, %23
  call void @Vec_WrdGrow(ptr noundef %20, i32 noundef %24)
  br label %25

25:                                               ; preds = %19, %17
  br label %26

26:                                               ; preds = %25, %2
  %27 = load i64, ptr %4, align 8, !tbaa !65
  %28 = load ptr, ptr %3, align 8, !tbaa !85
  %29 = getelementptr inbounds nuw %struct.Vec_Wrd_t_, ptr %28, i32 0, i32 2
  %30 = load ptr, ptr %29, align 8, !tbaa !89
  %31 = load ptr, ptr %3, align 8, !tbaa !85
  %32 = getelementptr inbounds nuw %struct.Vec_Wrd_t_, ptr %31, i32 0, i32 1
  %33 = load i32, ptr %32, align 4, !tbaa !86
  %34 = add nsw i32 %33, 1
  store i32 %34, ptr %32, align 4, !tbaa !86
  %35 = sext i32 %33 to i64
  %36 = getelementptr inbounds i64, ptr %30, i64 %35
  store i64 %27, ptr %36, align 8, !tbaa !65
  ret void
}

; Function Attrs: inlinehint nounwind uwtable
define internal i64 @Vec_WrdEntry(ptr noundef %0, i32 noundef %1) #2 {
  %3 = alloca ptr, align 8
  %4 = alloca i32, align 4
  store ptr %0, ptr %3, align 8, !tbaa !85
  store i32 %1, ptr %4, align 4, !tbaa !10
  %5 = load ptr, ptr %3, align 8, !tbaa !85
  %6 = getelementptr inbounds nuw %struct.Vec_Wrd_t_, ptr %5, i32 0, i32 2
  %7 = load ptr, ptr %6, align 8, !tbaa !89
  %8 = load i32, ptr %4, align 4, !tbaa !10
  %9 = sext i32 %8 to i64
  %10 = getelementptr inbounds i64, ptr %7, i64 %9
  %11 = load i64, ptr %10, align 8, !tbaa !65
  ret i64 %11
}

; Function Attrs: inlinehint nounwind uwtable
define internal i32 @Vec_WrdSize(ptr noundef %0) #2 {
  %2 = alloca ptr, align 8
  store ptr %0, ptr %2, align 8, !tbaa !85
  %3 = load ptr, ptr %2, align 8, !tbaa !85
  %4 = getelementptr inbounds nuw %struct.Vec_Wrd_t_, ptr %3, i32 0, i32 1
  %5 = load i32, ptr %4, align 4, !tbaa !86
  ret i32 %5
}

; Function Attrs: nounwind uwtable
define void @Gia_ManDeriveNext(ptr noundef %0, i32 noundef %1, ptr noundef %2) #0 {
  %4 = alloca ptr, align 8
  %5 = alloca i32, align 4
  %6 = alloca ptr, align 8
  %7 = alloca i32, align 4
  %8 = alloca i32, align 4
  %9 = alloca i64, align 8
  %10 = alloca i32, align 4
  %11 = alloca ptr, align 8
  %12 = alloca ptr, align 8
  %13 = alloca ptr, align 8
  %14 = alloca ptr, align 8
  store ptr %0, ptr %4, align 8, !tbaa !85
  store i32 %1, ptr %5, align 4, !tbaa !10
  store ptr %2, ptr %6, align 8, !tbaa !76
  call void @llvm.lifetime.start.p0(i64 4, ptr %7) #14
  call void @llvm.lifetime.start.p0(i64 4, ptr %8) #14
  %15 = load ptr, ptr %4, align 8, !tbaa !85
  %16 = call i32 @Vec_WrdSize(ptr noundef %15)
  store i32 %16, ptr %8, align 4, !tbaa !10
  call void @llvm.lifetime.start.p0(i64 8, ptr %9) #14
  call void @llvm.lifetime.start.p0(i64 4, ptr %10) #14
  %17 = load ptr, ptr %4, align 8, !tbaa !85
  %18 = call i32 @Vec_WrdSize(ptr noundef %17)
  %19 = load i32, ptr %5, align 4, !tbaa !10
  %20 = sdiv i32 %18, %19
  %21 = sdiv i32 %20, 2
  store i32 %21, ptr %10, align 4, !tbaa !10
  store i32 0, ptr %7, align 4, !tbaa !10
  br label %22

22:                                               ; preds = %35, %3
  %23 = load i32, ptr %7, align 4, !tbaa !10
  %24 = load i32, ptr %8, align 4, !tbaa !10
  %25 = icmp slt i32 %23, %24
  br i1 %25, label %26, label %30

26:                                               ; preds = %22
  %27 = load ptr, ptr %4, align 8, !tbaa !85
  %28 = load i32, ptr %7, align 4, !tbaa !10
  %29 = call i64 @Vec_WrdEntry(ptr noundef %27, i32 noundef %28)
  store i64 %29, ptr %9, align 8, !tbaa !65
  br label %30

30:                                               ; preds = %26, %22
  %31 = phi i1 [ false, %22 ], [ true, %26 ]
  br i1 %31, label %32, label %38

32:                                               ; preds = %30
  %33 = load ptr, ptr %4, align 8, !tbaa !85
  %34 = load i64, ptr %9, align 8, !tbaa !65
  call void @Vec_WrdPush(ptr noundef %33, i64 noundef %34)
  br label %35

35:                                               ; preds = %32
  %36 = load i32, ptr %7, align 4, !tbaa !10
  %37 = add nsw i32 %36, 1
  store i32 %37, ptr %7, align 4, !tbaa !10
  br label %22, !llvm.loop !244

38:                                               ; preds = %30
  store i32 0, ptr %7, align 4, !tbaa !10
  br label %39

39:                                               ; preds = %92, %38
  %40 = load i32, ptr %7, align 4, !tbaa !10
  %41 = load i32, ptr %10, align 4, !tbaa !10
  %42 = icmp slt i32 %40, %41
  br i1 %42, label %43, label %95

43:                                               ; preds = %39
  call void @llvm.lifetime.start.p0(i64 8, ptr %11) #14
  %44 = load ptr, ptr %4, align 8, !tbaa !85
  %45 = load i32, ptr %7, align 4, !tbaa !10
  %46 = mul nsw i32 2, %45
  %47 = add nsw i32 %46, 0
  %48 = load i32, ptr %5, align 4, !tbaa !10
  %49 = mul nsw i32 %47, %48
  %50 = call ptr @Vec_WrdEntryP(ptr noundef %44, i32 noundef %49)
  store ptr %50, ptr %11, align 8, !tbaa !76
  call void @llvm.lifetime.start.p0(i64 8, ptr %12) #14
  %51 = load ptr, ptr %4, align 8, !tbaa !85
  %52 = load i32, ptr %7, align 4, !tbaa !10
  %53 = mul nsw i32 2, %52
  %54 = add nsw i32 %53, 1
  %55 = load i32, ptr %5, align 4, !tbaa !10
  %56 = mul nsw i32 %54, %55
  %57 = call ptr @Vec_WrdEntryP(ptr noundef %51, i32 noundef %56)
  store ptr %57, ptr %12, align 8, !tbaa !76
  call void @llvm.lifetime.start.p0(i64 8, ptr %13) #14
  %58 = load ptr, ptr %4, align 8, !tbaa !85
  %59 = load i32, ptr %7, align 4, !tbaa !10
  %60 = mul nsw i32 2, %59
  %61 = add nsw i32 %60, 0
  %62 = load i32, ptr %5, align 4, !tbaa !10
  %63 = mul nsw i32 %61, %62
  %64 = load i32, ptr %8, align 4, !tbaa !10
  %65 = add nsw i32 %63, %64
  %66 = call ptr @Vec_WrdEntryP(ptr noundef %58, i32 noundef %65)
  store ptr %66, ptr %13, align 8, !tbaa !76
  call void @llvm.lifetime.start.p0(i64 8, ptr %14) #14
  %67 = load ptr, ptr %4, align 8, !tbaa !85
  %68 = load i32, ptr %7, align 4, !tbaa !10
  %69 = mul nsw i32 2, %68
  %70 = add nsw i32 %69, 1
  %71 = load i32, ptr %5, align 4, !tbaa !10
  %72 = mul nsw i32 %70, %71
  %73 = load i32, ptr %8, align 4, !tbaa !10
  %74 = add nsw i32 %72, %73
  %75 = call ptr @Vec_WrdEntryP(ptr noundef %67, i32 noundef %74)
  store ptr %75, ptr %14, align 8, !tbaa !76
  %76 = load ptr, ptr %13, align 8, !tbaa !76
  %77 = load ptr, ptr %11, align 8, !tbaa !76
  %78 = load ptr, ptr %6, align 8, !tbaa !76
  %79 = load i32, ptr %5, align 4, !tbaa !10
  call void @Abc_TtAnd(ptr noundef %76, ptr noundef %77, ptr noundef %78, i32 noundef %79, i32 noundef 0)
  %80 = load ptr, ptr %14, align 8, !tbaa !76
  %81 = load ptr, ptr %12, align 8, !tbaa !76
  %82 = load ptr, ptr %6, align 8, !tbaa !76
  %83 = load i32, ptr %5, align 4, !tbaa !10
  call void @Abc_TtAnd(ptr noundef %80, ptr noundef %81, ptr noundef %82, i32 noundef %83, i32 noundef 0)
  %84 = load ptr, ptr %11, align 8, !tbaa !76
  %85 = load ptr, ptr %11, align 8, !tbaa !76
  %86 = load ptr, ptr %6, align 8, !tbaa !76
  %87 = load i32, ptr %5, align 4, !tbaa !10
  call void @Abc_TtSharp(ptr noundef %84, ptr noundef %85, ptr noundef %86, i32 noundef %87)
  %88 = load ptr, ptr %12, align 8, !tbaa !76
  %89 = load ptr, ptr %12, align 8, !tbaa !76
  %90 = load ptr, ptr %6, align 8, !tbaa !76
  %91 = load i32, ptr %5, align 4, !tbaa !10
  call void @Abc_TtSharp(ptr noundef %88, ptr noundef %89, ptr noundef %90, i32 noundef %91)
  call void @llvm.lifetime.end.p0(i64 8, ptr %14) #14
  call void @llvm.lifetime.end.p0(i64 8, ptr %13) #14
  call void @llvm.lifetime.end.p0(i64 8, ptr %12) #14
  call void @llvm.lifetime.end.p0(i64 8, ptr %11) #14
  br label %92

92:                                               ; preds = %43
  %93 = load i32, ptr %7, align 4, !tbaa !10
  %94 = add nsw i32 %93, 1
  store i32 %94, ptr %7, align 4, !tbaa !10
  br label %39, !llvm.loop !245

95:                                               ; preds = %39
  call void @llvm.lifetime.end.p0(i64 4, ptr %10) #14
  call void @llvm.lifetime.end.p0(i64 8, ptr %9) #14
  call void @llvm.lifetime.end.p0(i64 4, ptr %8) #14
  call void @llvm.lifetime.end.p0(i64 4, ptr %7) #14
  ret void
}