; Function Attrs: nounwind uwtable
define void @Gia_ManDeriveNext(ptr noundef captures(none) %0, i32 noundef %1, ptr noundef readonly captures(none) %2) local_unnamed_addr #0 {
  %4 = getelementptr i8, ptr %0, i64 4
  %.val47 = load i32, ptr %4, align 4, !tbaa !81
  %5 = sdiv i32 %.val47, %1
  %6 = sdiv i32 %5, 2
  %7 = icmp sgt i32 %.val47, 0
  br i1 %7, label %.lr.ph, label %.critedge.preheader

.lr.ph:                                           ; preds = %3
  %8 = getelementptr i8, ptr %0, i64 8
  %wide.trip.count = zext nneg i32 %.val47 to i64
  %.val48.pre = load ptr, ptr %8, align 8, !tbaa !84
  %.pre = load i32, ptr %0, align 8, !tbaa !83
  br label %44

.critedge.preheader:                              ; preds = %Vec_WrdPush.exit, %3
  %9 = icmp sgt i32 %5, 1
  br i1 %9, label %.lr.ph71, label %.critedge._crit_edge

.lr.ph71:                                         ; preds = %.critedge.preheader
  %10 = getelementptr i8, ptr %0, i64 8
  %.val45 = load ptr, ptr %10, align 8, !tbaa !84
  %11 = icmp sgt i32 %1, 0
  %wide.trip.count.i = zext nneg i32 %1 to i64
  br i1 %11, label %.lr.ph.preheader.i.us.preheader, label %.critedge._crit_edge

.lr.ph.preheader.i.us.preheader:                  ; preds = %.lr.ph71
  %12 = zext nneg i32 %1 to i64
  %13 = sext i32 %.val47 to i64
  %wide.trip.count77 = zext nneg i32 %6 to i64
  %invariant.gep = getelementptr i64, ptr %.val45, i64 %13
  %invariant.gep81 = getelementptr i64, ptr %.val45, i64 %13
  br label %.lr.ph.preheader.i.us

.lr.ph.preheader.i.us:                            ; preds = %.lr.ph.preheader.i.us.preheader, %Abc_TtSharp.exit68.loopexit.us
  %indvars.iv74 = phi i64 [ 0, %.lr.ph.preheader.i.us.preheader ], [ %indvars.iv.next75, %Abc_TtSharp.exit68.loopexit.us ]
  %14 = shl nuw nsw i64 %indvars.iv74, 1
  %15 = mul nuw nsw i64 %14, %12
  %16 = getelementptr inbounds nuw i64, ptr %.val45, i64 %15
  %17 = or disjoint i64 %14, 1
  %18 = mul nuw nsw i64 %17, %12
  %gep = getelementptr i64, ptr %invariant.gep, i64 %15
  br label %.lr.ph.i.us

.lr.ph.i.us:                                      ; preds = %.lr.ph.i.us, %.lr.ph.preheader.i.us
  %indvars.iv.i.us = phi i64 [ 0, %.lr.ph.preheader.i.us ], [ %indvars.iv.next.i.us, %.lr.ph.i.us ]
  %19 = getelementptr inbounds nuw i64, ptr %16, i64 %indvars.iv.i.us
  %20 = load i64, ptr %19, align 8, !tbaa !94
  %21 = getelementptr inbounds nuw i64, ptr %2, i64 %indvars.iv.i.us
  %22 = load i64, ptr %21, align 8, !tbaa !94
  %23 = and i64 %22, %20
  %24 = getelementptr inbounds nuw i64, ptr %gep, i64 %indvars.iv.i.us
  store i64 %23, ptr %24, align 8, !tbaa !94
  %indvars.iv.next.i.us = add nuw nsw i64 %indvars.iv.i.us, 1
  %exitcond.not.i.us = icmp eq i64 %indvars.iv.next.i.us, %wide.trip.count.i
  br i1 %exitcond.not.i.us, label %.lr.ph.i51.us.preheader, label %.lr.ph.i.us, !llvm.loop !220

.lr.ph.i51.us.preheader:                          ; preds = %.lr.ph.i.us
  %25 = getelementptr inbounds nuw i64, ptr %.val45, i64 %18
  %gep82 = getelementptr i64, ptr %invariant.gep81, i64 %18
  br label %.lr.ph.i51.us

.lr.ph.i51.us:                                    ; preds = %.lr.ph.i51.us.preheader, %.lr.ph.i51.us
  %indvars.iv.i52.us = phi i64 [ %indvars.iv.next.i53.us, %.lr.ph.i51.us ], [ 0, %.lr.ph.i51.us.preheader ]
  %26 = getelementptr inbounds nuw i64, ptr %25, i64 %indvars.iv.i52.us
  %27 = load i64, ptr %26, align 8, !tbaa !94
  %28 = getelementptr inbounds nuw i64, ptr %2, i64 %indvars.iv.i52.us
  %29 = load i64, ptr %28, align 8, !tbaa !94
  %30 = and i64 %29, %27
  %31 = getelementptr inbounds nuw i64, ptr %gep82, i64 %indvars.iv.i52.us
  store i64 %30, ptr %31, align 8, !tbaa !94
  %indvars.iv.next.i53.us = add nuw nsw i64 %indvars.iv.i52.us, 1
  %exitcond.not.i54.us = icmp eq i64 %indvars.iv.next.i53.us, %wide.trip.count.i
  br i1 %exitcond.not.i54.us, label %.lr.ph.i58.us, label %.lr.ph.i51.us, !llvm.loop !220

.lr.ph.i58.us:                                    ; preds = %.lr.ph.i51.us, %.lr.ph.i58.us
  %indvars.iv.i59.us = phi i64 [ %indvars.iv.next.i60.us, %.lr.ph.i58.us ], [ 0, %.lr.ph.i51.us ]
  %32 = getelementptr inbounds nuw i64, ptr %16, i64 %indvars.iv.i59.us
  %33 = load i64, ptr %32, align 8, !tbaa !94
  %34 = getelementptr inbounds nuw i64, ptr %2, i64 %indvars.iv.i59.us
  %35 = load i64, ptr %34, align 8, !tbaa !94
  %36 = xor i64 %35, -1
  %37 = and i64 %33, %36
  store i64 %37, ptr %32, align 8, !tbaa !94
  %indvars.iv.next.i60.us = add nuw nsw i64 %indvars.iv.i59.us, 1
  %exitcond.not.i61.us = icmp eq i64 %indvars.iv.next.i60.us, %wide.trip.count.i
  br i1 %exitcond.not.i61.us, label %.lr.ph.i64.us, label %.lr.ph.i58.us, !llvm.loop !221

.lr.ph.i64.us:                                    ; preds = %.lr.ph.i58.us, %.lr.ph.i64.us
  %indvars.iv.i65.us = phi i64 [ %indvars.iv.next.i66.us, %.lr.ph.i64.us ], [ 0, %.lr.ph.i58.us ]
  %38 = getelementptr inbounds nuw i64, ptr %25, i64 %indvars.iv.i65.us
  %39 = load i64, ptr %38, align 8, !tbaa !94
  %40 = getelementptr inbounds nuw i64, ptr %2, i64 %indvars.iv.i65.us
  %41 = load i64, ptr %40, align 8, !tbaa !94
  %42 = xor i64 %41, -1
  %43 = and i64 %39, %42
  store i64 %43, ptr %38, align 8, !tbaa !94
  %indvars.iv.next.i66.us = add nuw nsw i64 %indvars.iv.i65.us, 1
  %exitcond.not.i67.us = icmp eq i64 %indvars.iv.next.i66.us, %wide.trip.count.i
  br i1 %exitcond.not.i67.us, label %Abc_TtSharp.exit68.loopexit.us, label %.lr.ph.i64.us, !llvm.loop !221

Abc_TtSharp.exit68.loopexit.us:                   ; preds = %.lr.ph.i64.us
  %indvars.iv.next75 = add nuw nsw i64 %indvars.iv74, 1
  %exitcond78.not = icmp eq i64 %indvars.iv.next75, %wide.trip.count77
  br i1 %exitcond78.not, label %.critedge._crit_edge, label %.lr.ph.preheader.i.us, !llvm.loop !222

44:                                               ; preds = %.lr.ph, %Vec_WrdPush.exit
  %45 = phi i32 [ %.pre, %.lr.ph ], [ %55, %Vec_WrdPush.exit ]
  %46 = phi i32 [ %.val47, %.lr.ph ], [ %57, %Vec_WrdPush.exit ]
  %.val48 = phi ptr [ %.val48.pre, %.lr.ph ], [ %.val4879, %Vec_WrdPush.exit ]
  %indvars.iv = phi i64 [ 0, %.lr.ph ], [ %indvars.iv.next, %Vec_WrdPush.exit ]
  %47 = getelementptr inbounds nuw i64, ptr %.val48, i64 %indvars.iv
  %48 = load i64, ptr %47, align 8, !tbaa !94
  %49 = icmp eq i32 %46, %45
  br i1 %49, label %Vec_WrdPush.exit.sink.split, label %Vec_WrdPush.exit

Vec_WrdPush.exit.sink.split:                      ; preds = %44
  %50 = icmp slt i32 %45, 16
  %51 = shl nuw nsw i32 %45, 1
  %52 = zext nneg i32 %51 to i64
  %53 = shl nuw nsw i64 %52, 3
  %.sink84 = select i1 %50, i64 128, i64 %53
  %.sink = select i1 %50, i32 16, i32 %51
  %54 = tail call ptr @realloc(ptr noundef nonnull %.val48, i64 noundef %.sink84) #30
  store ptr %54, ptr %8, align 8, !tbaa !84
  store i32 %.sink, ptr %0, align 8, !tbaa !83
  br label %Vec_WrdPush.exit

Vec_WrdPush.exit:                                 ; preds = %Vec_WrdPush.exit.sink.split, %44
  %55 = phi i32 [ %45, %44 ], [ %.sink, %Vec_WrdPush.exit.sink.split ]
  %.val4879 = phi ptr [ %.val48, %44 ], [ %54, %Vec_WrdPush.exit.sink.split ]
  %56 = load i32, ptr %4, align 4, !tbaa !81
  %57 = add nsw i32 %56, 1
  store i32 %57, ptr %4, align 4, !tbaa !81
  %58 = sext i32 %56 to i64
  %59 = getelementptr inbounds i64, ptr %.val4879, i64 %58
  store i64 %48, ptr %59, align 8, !tbaa !94
  %indvars.iv.next = add nuw nsw i64 %indvars.iv, 1
  %exitcond.not = icmp eq i64 %indvars.iv.next, %wide.trip.count
  br i1 %exitcond.not, label %.critedge.preheader, label %44, !llvm.loop !223

.critedge._crit_edge:                             ; preds = %Abc_TtSharp.exit68.loopexit.us, %.lr.ph71, %.critedge.preheader
  ret void
}